target datalayout = "e-m:e-p270:32:32-p271:32:32-p272:64:64-i64:64-i128:128-f80:128-n8:16:32:64-S128"
target triple = "x86_64-pc-linux-gnu"

%struct.RBasic = type { i64, i64 }
%struct.RArray = type { %struct.RBasic, %union.anon.16 }
%union.anon.16 = type { %struct.anon.17 }
%struct.anon.17 = type { i64, %union.anon.18, ptr }
%union.anon.18 = type { i64 }

@.str = private unnamed_addr constant [10 x i8] c"../hash.c\00", align 1
@environ = external global ptr, align 8
@ruby_single_main_ractor = external global ptr, align 8

; Function Attrs: inlinehint nounwind sspstrong willreturn memory(read) uwtable
define internal i64 @RB_FL_TEST_RAW(i64 noundef %0, i64 noundef %1) #4 {
  %3 = alloca i64, align 8
  %4 = alloca i64, align 8
  store i64 %0, ptr %3, align 8, !tbaa !7
  store i64 %1, ptr %4, align 8, !tbaa !7
  %5 = load i64, ptr %3, align 8, !tbaa !7
  %6 = inttoptr i64 %5 to ptr
  %7 = getelementptr inbounds nuw %struct.RBasic, ptr %6, i32 0, i32 0
  %8 = load i64, ptr %7, align 8, !tbaa !64
  %9 = load i64, ptr %4, align 8, !tbaa !7
  %10 = and i64 %8, %9
  ret i64 %10
}

; Function Attrs: inlinehint nounwind sspstrong willreturn memory(read) uwtable
define internal ptr @rb_array_const_ptr(i64 noundef %0) #4 {
  %2 = alloca ptr, align 8
  %3 = alloca i64, align 8
  store i64 %0, ptr %3, align 8, !tbaa !7
  %4 = load i64, ptr %3, align 8, !tbaa !7
  %5 = call zeroext i1 @RB_FL_ANY_RAW(i64 noundef %4, i64 noundef 8192) #26
  br i1 %5, label %6, label %11

6:                                                ; preds = %1
  %7 = load i64, ptr %3, align 8, !tbaa !7
  %8 = inttoptr i64 %7 to ptr
  %9 = getelementptr inbounds nuw %struct.RArray, ptr %8, i32 0, i32 1
  %10 = getelementptr inbounds [1 x i64], ptr %9, i64 0, i64 0
  store ptr %10, ptr %2, align 8
  br label %17

11:                                               ; preds = %1
  %12 = load i64, ptr %3, align 8, !tbaa !7
  %13 = inttoptr i64 %12 to ptr
  %14 = getelementptr inbounds nuw %struct.RArray, ptr %13, i32 0, i32 1
  %15 = getelementptr inbounds nuw %struct.anon.17, ptr %14, i32 0, i32 2
  %16 = load ptr, ptr %15, align 8, !tbaa !22
  store ptr %16, ptr %2, align 8
  br label %17

17:                                               ; preds = %11, %6
  %18 = load ptr, ptr %2, align 8
  ret ptr %18
}

; Function Attrs: inlinehint nounwind sspstrong willreturn memory(read) uwtable
define internal i64 @RARRAY_EMBED_LEN(i64 noundef %0) #4 {
  %2 = alloca i64, align 8
  %3 = alloca i64, align 8
  store i64 %0, ptr %2, align 8, !tbaa !7
  call void @llvm.lifetime.start.p0(i64 8, ptr %3) #28
  %4 = load i64, ptr %2, align 8, !tbaa !7
  %5 = inttoptr i64 %4 to ptr
  %6 = getelementptr inbounds nuw %struct.RBasic, ptr %5, i32 0, i32 0
  %7 = load i64, ptr %6, align 8, !tbaa !64
  store i64 %7, ptr %3, align 8, !tbaa !7
  %8 = load i64, ptr %3, align 8, !tbaa !7
  %9 = and i64 %8, 4161536
  store i64 %9, ptr %3, align 8, !tbaa !7
  %10 = load i64, ptr %3, align 8, !tbaa !7
  %11 = lshr i64 %10, 15
  store i64 %11, ptr %3, align 8, !tbaa !7
  %12 = load i64, ptr %3, align 8, !tbaa !7
  call void @llvm.lifetime.end.p0(i64 8, ptr %3) #28
  ret i64 %12
}

; Function Attrs: inlinehint nounwind sspstrong willreturn memory(read) uwtable
define internal zeroext i1 @RB_FL_ANY_RAW(i64 noundef %0, i64 noundef %1) #4 {
  %3 = alloca i64, align 8
  %4 = alloca i64, align 8
  store i64 %0, ptr %3, align 8, !tbaa !7
  store i64 %1, ptr %4, align 8, !tbaa !7
  %5 = load i64, ptr %3, align 8, !tbaa !7
  %6 = load i64, ptr %4, align 8, !tbaa !7
  %7 = call i64 @RB_FL_TEST_RAW(i64 noundef %5, i64 noundef %6) #26
  %8 = icmp ne i64 %7, 0
  ret i1 %8
}

; Function Attrs: nounwind sspstrong uwtable
define internal i64 @env_enc_str_new(ptr noundef %0, i64 noundef %1, ptr noundef %2) #0 {
  %4 = alloca ptr, align 8
  %5 = alloca i64, align 8
  %6 = alloca ptr, align 8
  %7 = alloca i64, align 8
  store ptr %0, ptr %4, align 8, !tbaa !14
  store i64 %1, ptr %5, align 8, !tbaa !7
  store ptr %2, ptr %6, align 8, !tbaa !99
  call void @llvm.lifetime.start.p0(i64 8, ptr %7) #28
  %8 = load ptr, ptr %4, align 8, !tbaa !14
  %9 = load i64, ptr %5, align 8, !tbaa !7
  %10 = load ptr, ptr %6, align 8, !tbaa !99
  %11 = call i64 @rb_external_str_new_with_enc(ptr noundef %8, i64 noundef %9, ptr noundef %10)
  store i64 %11, ptr %7, align 8, !tbaa !7
  %12 = load i64, ptr %7, align 8, !tbaa !7
  %13 = call i64 @rb_obj_freeze(i64 noundef %12)
  %14 = load i64, ptr %7, align 8, !tbaa !7
  call void @llvm.lifetime.end.p0(i64 8, ptr %7) #28
  ret i64 %14
}

; Function Attrs: inlinehint nounwind sspstrong uwtable
define internal ptr @env_encoding() #2 {
  %1 = call ptr @rb_locale_encoding()
  ret ptr %1
}

; Function Attrs: inlinehint nounwind sspstrong uwtable
define internal zeroext i1 @rb_multi_ractor_p() #2 {
  %1 = alloca i1, align 1
  %2 = load ptr, ptr @ruby_single_main_ractor, align 8, !tbaa !171
  %3 = icmp ne ptr %2, null
  %4 = xor i1 %3, true
  %5 = xor i1 %4, true
  %6 = zext i1 %5 to i32
  %7 = sext i32 %6 to i64
  %8 = call i64 @llvm.expect.i64(i64 %7, i64 1)
  %9 = icmp ne i64 %8, 0
  br i1 %9, label %10, label %11

10:                                               ; preds = %0
  store i1 false, ptr %1, align 1
  br label %12

11:                                               ; preds = %0
  store i1 true, ptr %1, align 1
  br label %12

12:                                               ; preds = %11, %10
  %13 = load i1, ptr %1, align 1
  ret i1 %13
}

; Function Attrs: inlinehint nounwind sspstrong willreturn memory(read) uwtable
define internal i64 @RARRAY_AREF(i64 noundef %0, i64 noundef %1) #4 {
  %3 = alloca i64, align 8
  %4 = alloca i64, align 8
  %5 = alloca i64, align 8
  store i64 %0, ptr %3, align 8, !tbaa !7
  store i64 %1, ptr %4, align 8, !tbaa !7
  call void @llvm.lifetime.start.p0(i64 8, ptr %5) #28
  %6 = load i64, ptr %3, align 8, !tbaa !7
  %7 = call ptr @rb_array_const_ptr(i64 noundef %6) #26
  %8 = load i64, ptr %4, align 8, !tbaa !7
  %9 = getelementptr i64, ptr %7, i64 %8
  %10 = load i64, ptr %9, align 8, !tbaa !7
  store i64 %10, ptr %5, align 8, !tbaa !7
  %11 = load i64, ptr %5, align 8, !tbaa !7
  call void @llvm.lifetime.end.p0(i64 8, ptr %5) #28
  ret i64 %11
}

; Function Attrs: inlinehint nounwind sspstrong willreturn memory(read) uwtable
define internal i64 @rb_array_len(i64 noundef %0) #4 {
  %2 = alloca i64, align 8
  %3 = alloca i64, align 8
  store i64 %0, ptr %3, align 8, !tbaa !7
  %4 = load i64, ptr %3, align 8, !tbaa !7
  %5 = call zeroext i1 @RB_FL_ANY_RAW(i64 noundef %4, i64 noundef 8192) #26
  br i1 %5, label %6, label %9

6:                                                ; preds = %1
  %7 = load i64, ptr %3, align 8, !tbaa !7
  %8 = call i64 @RARRAY_EMBED_LEN(i64 noundef %7) #26
  store i64 %8, ptr %2, align 8
  br label %15

9:                                                ; preds = %1
  %10 = load i64, ptr %3, align 8, !tbaa !7
  %11 = inttoptr i64 %10 to ptr
  %12 = getelementptr inbounds nuw %struct.RArray, ptr %11, i32 0, i32 1
  %13 = getelementptr inbounds nuw %struct.anon.17, ptr %12, i32 0, i32 0
  %14 = load i64, ptr %13, align 8, !tbaa !22
  store i64 %14, ptr %2, align 8
  br label %15

15:                                               ; preds = %9, %6
  %16 = load i64, ptr %2, align 8
  ret i64 %16
}

; Function Attrs: inlinehint nounwind sspstrong uwtable
define internal void @rb_vm_lock_leave(ptr noundef %0, ptr noundef %1, i32 noundef %2) #2 {
  %4 = alloca ptr, align 8
  %5 = alloca ptr, align 8
  %6 = alloca i32, align 4
  store ptr %0, ptr %4, align 8, !tbaa !95
  store ptr %1, ptr %5, align 8, !tbaa !14
  store i32 %2, ptr %6, align 4, !tbaa !16
  %7 = call zeroext i1 @rb_multi_ractor_p()
  br i1 %7, label %8, label %10

8:                                                ; preds = %3
  %9 = load ptr, ptr %4, align 8, !tbaa !95
  call void @rb_vm_lock_leave_body(ptr noundef %9)
  br label %10

10:                                               ; preds = %8, %3
  ret void
}

; Function Attrs: nounwind sspstrong uwtable
define internal i64 @env_str_new2(ptr noundef %0) #0 {
  %2 = alloca i64, align 8
  %3 = alloca ptr, align 8
  store ptr %0, ptr %3, align 8, !tbaa !14
  %4 = load ptr, ptr %3, align 8, !tbaa !14
  %5 = icmp ne ptr %4, null
  br i1 %5, label %7, label %6

6:                                                ; preds = %1
  store i64 4, ptr %2, align 8
  br label %12

7:                                                ; preds = %1
  %8 = load ptr, ptr %3, align 8, !tbaa !14
  %9 = load ptr, ptr %3, align 8, !tbaa !14
  %10 = call i64 @strlen(ptr noundef %9) #26
  %11 = call i64 @env_str_new(ptr noundef %8, i64 noundef %10)
  store i64 %11, ptr %2, align 8
  br label %12

12:                                               ; preds = %7, %6
  %13 = load i64, ptr %2, align 8
  ret i64 %13
}

; Function Attrs: nounwind sspstrong uwtable
define internal i64 @env_str_new(ptr noundef %0, i64 noundef %1) #0 {
  %3 = alloca ptr, align 8
  %4 = alloca i64, align 8
  store ptr %0, ptr %3, align 8, !tbaa !14
  store i64 %1, ptr %4, align 8, !tbaa !7
  %5 = load ptr, ptr %3, align 8, !tbaa !14
  %6 = load i64, ptr %4, align 8, !tbaa !7
  %7 = call ptr @env_encoding()
  %8 = call i64 @env_enc_str_new(ptr noundef %5, i64 noundef %6, ptr noundef %7)
  ret i64 %8
}

; Function Attrs: inlinehint nounwind sspstrong uwtable
define internal void @rb_vm_lock_enter(ptr noundef %0, ptr noundef %1, i32 noundef %2) #2 {
  %4 = alloca ptr, align 8
  %5 = alloca ptr, align 8
  %6 = alloca i32, align 4
  store ptr %0, ptr %4, align 8, !tbaa !95
  store ptr %1, ptr %5, align 8, !tbaa !14
  store i32 %2, ptr %6, align 4, !tbaa !16
  %7 = call zeroext i1 @rb_multi_ractor_p()
  br i1 %7, label %8, label %10

8:                                                ; preds = %3
  %9 = load ptr, ptr %4, align 8, !tbaa !95
  call void @rb_vm_lock_enter_body(ptr noundef %9)
  br label %10

10:                                               ; preds = %8, %3
  ret void
}

; Function Attrs: nounwind sspstrong uwtable
define internal i64 @env_each_pair(i64 noundef %0) #0 {
  %2 = alloca i64, align 8
  %3 = alloca i64, align 8
  %4 = alloca i64, align 8
  %5 = alloca i64, align 8
  %6 = alloca i32, align 4
  %7 = alloca i64, align 8
  %8 = alloca i32, align 4
  %9 = alloca ptr, align 8
  %10 = alloca ptr, align 8
  store i64 %0, ptr %3, align 8, !tbaa !7
  call void @llvm.lifetime.start.p0(i64 8, ptr %4) #28
  br label %11

11:                                               ; preds = %1
  %12 = call i32 @rb_block_given_p()
  %13 = icmp ne i32 %12, 0
  br i1 %13, label %20, label %14

14:                                               ; preds = %11
  %15 = load i64, ptr %3, align 8, !tbaa !7
  %16 = call i64 @rb_frame_this_func()
  %17 = call i64 @rb_id2sym(i64 noundef %16)
  store i64 %17, ptr %5, align 8, !tbaa !7
  %18 = load i64, ptr %5, align 8, !tbaa !7
  %19 = call i64 @rb_enumeratorize_with_size(i64 noundef %15, i64 noundef %18, i32 noundef 0, ptr noundef null, ptr noundef @rb_env_size)
  store i64 %19, ptr %2, align 8
  store i32 1, ptr %6, align 4
  br label %99

20:                                               ; preds = %11
  br label %21

21:                                               ; preds = %20
  br label %22

22:                                               ; preds = %21
  call void @llvm.lifetime.start.p0(i64 8, ptr %7) #28
  %23 = call i64 @rb_ary_new()
  store i64 %23, ptr %7, align 8, !tbaa !7
  call void @llvm.lifetime.start.p0(i64 4, ptr %8) #28
  call void @rb_vm_lock_enter(ptr noundef %8, ptr noundef @.str, i32 noundef 5647)
  call void @llvm.lifetime.start.p0(i64 8, ptr %9) #28
  %24 = load ptr, ptr @environ, align 8, !tbaa !101
  store ptr %24, ptr %9, align 8, !tbaa !101
  br label %25

25:                                               ; preds = %52, %22
  %26 = load ptr, ptr %9, align 8, !tbaa !101
  %27 = load ptr, ptr %26, align 8, !tbaa !14
  %28 = icmp ne ptr %27, null
  br i1 %28, label %29, label %55

29:                                               ; preds = %25
  call void @llvm.lifetime.start.p0(i64 8, ptr %10) #28
  %30 = load ptr, ptr %9, align 8, !tbaa !101
  %31 = load ptr, ptr %30, align 8, !tbaa !14
  %32 = call ptr @strchr(ptr noundef %31, i32 noundef 61) #26
  store ptr %32, ptr %10, align 8, !tbaa !14
  %33 = load ptr, ptr %10, align 8, !tbaa !14
  %34 = icmp ne ptr %33, null
  br i1 %34, label %35, label %52

35:                                               ; preds = %29
  %36 = load i64, ptr %7, align 8, !tbaa !7
  %37 = load ptr, ptr %9, align 8, !tbaa !101
  %38 = load ptr, ptr %37, align 8, !tbaa !14
  %39 = load ptr, ptr %10, align 8, !tbaa !14
  %40 = load ptr, ptr %9, align 8, !tbaa !101
  %41 = load ptr, ptr %40, align 8, !tbaa !14
  %42 = ptrtoint ptr %39 to i64
  %43 = ptrtoint ptr %41 to i64
  %44 = sub i64 %42, %43
  %45 = call i64 @env_str_new(ptr noundef %38, i64 noundef %44)
  %46 = call i64 @rb_ary_push(i64 noundef %36, i64 noundef %45)
  %47 = load i64, ptr %7, align 8, !tbaa !7
  %48 = load ptr, ptr %10, align 8, !tbaa !14
  %49 = getelementptr i8, ptr %48, i64 1
  %50 = call i64 @env_str_new2(ptr noundef %49)
  %51 = call i64 @rb_ary_push(i64 noundef %47, i64 noundef %50)
  br label %52

52:                                               ; preds = %35, %29
  %53 = load ptr, ptr %9, align 8, !tbaa !101
  %54 = getelementptr ptr, ptr %53, i32 1
  store ptr %54, ptr %9, align 8, !tbaa !101
  call void @llvm.lifetime.end.p0(i64 8, ptr %10) #28
  br label %25, !llvm.loop !129

55:                                               ; preds = %25
  call void @llvm.lifetime.end.p0(i64 8, ptr %9) #28
  call void @rb_vm_lock_leave(ptr noundef %8, ptr noundef @.str, i32 noundef 5661)
  call void @llvm.lifetime.end.p0(i64 4, ptr %8) #28
  %56 = call i32 @rb_block_pair_yield_optimizable()
  %57 = icmp ne i32 %56, 0
  br i1 %57, label %58, label %77

58:                                               ; preds = %55
  store i64 0, ptr %4, align 8, !tbaa !7
  br label %59

59:                                               ; preds = %73, %58
  %60 = load i64, ptr %4, align 8, !tbaa !7
  %61 = load i64, ptr %7, align 8, !tbaa !7
  %62 = call i64 @rb_array_len(i64 noundef %61) #26
  %63 = icmp slt i64 %60, %62
  br i1 %63, label %64, label %76

64:                                               ; preds = %59
  %65 = load i64, ptr %7, align 8, !tbaa !7
  %66 = load i64, ptr %4, align 8, !tbaa !7
  %67 = call i64 @RARRAY_AREF(i64 noundef %65, i64 noundef %66) #26
  %68 = load i64, ptr %7, align 8, !tbaa !7
  %69 = load i64, ptr %4, align 8, !tbaa !7
  %70 = add i64 %69, 1
  %71 = call i64 @RARRAY_AREF(i64 noundef %68, i64 noundef %70) #26
  %72 = call i64 (i32, ...) @rb_yield_values(i32 noundef 2, i64 noundef %67, i64 noundef %71)
  br label %73

73:                                               ; preds = %64
  %74 = load i64, ptr %4, align 8, !tbaa !7
  %75 = add i64 %74, 2
  store i64 %75, ptr %4, align 8, !tbaa !7
  br label %59, !llvm.loop !130

76:                                               ; preds = %59
  br label %97

77:                                               ; preds = %55
  store i64 0, ptr %4, align 8, !tbaa !7
  br label %78

78:                                               ; preds = %93, %77
  %79 = load i64, ptr %4, align 8, !tbaa !7
  %80 = load i64, ptr %7, align 8, !tbaa !7
  %81 = call i64 @rb_array_len(i64 noundef %80) #26
  %82 = icmp slt i64 %79, %81
  br i1 %82, label %83, label %96

83:                                               ; preds = %78
  %84 = load i64, ptr %7, align 8, !tbaa !7
  %85 = load i64, ptr %4, align 8, !tbaa !7
  %86 = call i64 @RARRAY_AREF(i64 noundef %84, i64 noundef %85) #26
  %87 = load i64, ptr %7, align 8, !tbaa !7
  %88 = load i64, ptr %4, align 8, !tbaa !7
  %89 = add i64 %88, 1
  %90 = call i64 @RARRAY_AREF(i64 noundef %87, i64 noundef %89) #26
  %91 = call i64 @rb_assoc_new(i64 noundef %86, i64 noundef %90)
  %92 = call i64 @rb_yield(i64 noundef %91)
  br label %93

93:                                               ; preds = %83
  %94 = load i64, ptr %4, align 8, !tbaa !7
  %95 = add i64 %94, 2
  store i64 %95, ptr %4, align 8, !tbaa !7
  br label %78, !llvm.loop !131

96:                                               ; preds = %78
  br label %97

97:                                               ; preds = %96, %76
  %98 = load i64, ptr %3, align 8, !tbaa !7
  store i64 %98, ptr %2, align 8
  store i32 1, ptr %6, align 4
  call void @llvm.lifetime.end.p0(i64 8, ptr %7) #28
  br label %99

99:                                               ; preds = %97, %14
  call void @llvm.lifetime.end.p0(i64 8, ptr %4) #28
  %100 = load i64, ptr %2, align 8
  ret i64 %100
}