; Function Attrs: nounwind sspstrong uwtable
define internal i64 @env_each_pair(i64 noundef %0) #0 {
  %2 = alloca i32, align 4
  %3 = tail call i32 @rb_block_given_p() #28
  %.not = icmp eq i32 %3, 0
  br i1 %.not, label %4, label %8

4:                                                ; preds = %1
  %5 = tail call i64 @rb_frame_this_func() #28
  %6 = tail call i64 @rb_id2sym(i64 noundef %5) #28
  %7 = tail call i64 @rb_enumeratorize_with_size(i64 noundef %0, i64 noundef %6, i32 noundef 0, ptr noundef null, ptr noundef nonnull @rb_env_size) #28
  br label %.loopexit

8:                                                ; preds = %1
  %9 = tail call i64 @rb_ary_new() #28
  call void @llvm.lifetime.start.p0(i64 4, ptr nonnull %2) #28
  %10 = load ptr, ptr @ruby_single_main_ractor, align 8, !tbaa !82
  %.not.i.i = icmp eq ptr %10, null
  br i1 %.not.i.i, label %11, label %rb_vm_lock_enter.exit

11:                                               ; preds = %8
  call void @rb_vm_lock_enter_body(ptr noundef nonnull %2) #28
  br label %rb_vm_lock_enter.exit

rb_vm_lock_enter.exit:                            ; preds = %8, %11
  %12 = load ptr, ptr @environ, align 8, !tbaa !89
  %13 = load ptr, ptr %12, align 8, !tbaa !91
  %.not3159 = icmp eq ptr %13, null
  br i1 %.not3159, label %._crit_edge, label %.lr.ph

.lr.ph:                                           ; preds = %rb_vm_lock_enter.exit, %31
  %14 = phi ptr [ %33, %31 ], [ %13, %rb_vm_lock_enter.exit ]
  %.02760 = phi ptr [ %32, %31 ], [ %12, %rb_vm_lock_enter.exit ]
  %15 = call ptr @strchr(ptr noundef nonnull dereferenceable(1) %14, i32 noundef 61) #29
  %.not33 = icmp eq ptr %15, null
  br i1 %.not33, label %31, label %16

16:                                               ; preds = %.lr.ph
  %17 = ptrtoint ptr %15 to i64
  %18 = ptrtoint ptr %14 to i64
  %19 = sub i64 %17, %18
  %20 = call ptr @rb_locale_encoding() #28
  %21 = call i64 @rb_external_str_new_with_enc(ptr noundef nonnull %14, i64 noundef %19, ptr noundef %20) #28
  %22 = call i64 @rb_obj_freeze(i64 noundef %21) #28
  %23 = call i64 @rb_ary_push(i64 noundef %9, i64 noundef %21) #28
  %24 = getelementptr i8, ptr %15, i64 1
  %.not.i = icmp eq ptr %24, null
  br i1 %.not.i, label %env_str_new2.exit, label %25

25:                                               ; preds = %16
  %26 = call i64 @strlen(ptr noundef nonnull dereferenceable(1) %24) #29
  %27 = call ptr @rb_locale_encoding() #28
  %28 = call i64 @rb_external_str_new_with_enc(ptr noundef nonnull %24, i64 noundef %26, ptr noundef %27) #28
  %29 = call i64 @rb_obj_freeze(i64 noundef %28) #28
  br label %env_str_new2.exit

env_str_new2.exit:                                ; preds = %16, %25
  %.0.i = phi i64 [ %28, %25 ], [ 4, %16 ]
  %30 = call i64 @rb_ary_push(i64 noundef %9, i64 noundef %.0.i) #28
  br label %31

31:                                               ; preds = %env_str_new2.exit, %.lr.ph
  %32 = getelementptr i8, ptr %.02760, i64 8
  %33 = load ptr, ptr %32, align 8, !tbaa !91
  %.not31 = icmp eq ptr %33, null
  br i1 %.not31, label %._crit_edge, label %.lr.ph, !llvm.loop !121

._crit_edge:                                      ; preds = %31, %rb_vm_lock_enter.exit
  %34 = load ptr, ptr @ruby_single_main_ractor, align 8, !tbaa !82
  %.not.i.i34 = icmp eq ptr %34, null
  br i1 %.not.i.i34, label %35, label %rb_vm_lock_leave.exit

35:                                               ; preds = %._crit_edge
  call void @rb_vm_lock_leave_body(ptr noundef nonnull %2) #28
  br label %rb_vm_lock_leave.exit

rb_vm_lock_leave.exit:                            ; preds = %._crit_edge, %35
  call void @llvm.lifetime.end.p0(i64 4, ptr nonnull %2) #28
  %36 = call i32 @rb_block_pair_yield_optimizable() #28
  %.not32 = icmp eq i32 %36, 0
  %37 = inttoptr i64 %9 to ptr
  %38 = getelementptr inbounds nuw i8, ptr %37, i64 16
  %39 = getelementptr inbounds nuw i8, ptr %37, i64 32
  br i1 %.not32, label %.preheader, label %.preheader57

.preheader57:                                     ; preds = %rb_vm_lock_leave.exit, %RARRAY_AREF.exit40
  %.028 = phi i64 [ %54, %RARRAY_AREF.exit40 ], [ 0, %rb_vm_lock_leave.exit ]
  %40 = load i64, ptr %37, align 8, !tbaa !11
  %41 = and i64 %40, 8192
  %.not.i35 = icmp eq i64 %41, 0
  br i1 %.not.i35, label %rb_array_len.exit, label %rb_array_len.exit.thread

rb_array_len.exit:                                ; preds = %.preheader57
  %42 = load i64, ptr %38, align 8, !tbaa !22
  %43 = icmp slt i64 %.028, %42
  br i1 %43, label %47, label %.loopexit

rb_array_len.exit.thread:                         ; preds = %.preheader57
  %44 = lshr i64 %40, 15
  %45 = and i64 %44, 127
  %46 = icmp slt i64 %.028, %45
  br i1 %46, label %RARRAY_AREF.exit40, label %.loopexit

47:                                               ; preds = %rb_array_len.exit
  %48 = load ptr, ptr %39, align 8, !tbaa !22
  br label %RARRAY_AREF.exit40

RARRAY_AREF.exit40:                               ; preds = %rb_array_len.exit.thread, %47
  %.pn = phi ptr [ %48, %47 ], [ %38, %rb_array_len.exit.thread ]
  %.in = getelementptr i64, ptr %.pn, i64 %.028
  %49 = load i64, ptr %.in, align 8, !tbaa !7
  %50 = or disjoint i64 %.028, 1
  %51 = getelementptr i64, ptr %.pn, i64 %50
  %52 = load i64, ptr %51, align 8, !tbaa !7
  %53 = call i64 (i32, ...) @rb_yield_values(i32 noundef 2, i64 noundef %49, i64 noundef %52) #28
  %54 = add i64 %.028, 2
  br label %.preheader57, !llvm.loop !122

.preheader:                                       ; preds = %rb_vm_lock_leave.exit, %RARRAY_AREF.exit49
  %.1 = phi i64 [ %70, %RARRAY_AREF.exit49 ], [ 0, %rb_vm_lock_leave.exit ]
  %55 = load i64, ptr %37, align 8, !tbaa !11
  %56 = and i64 %55, 8192
  %.not.i41 = icmp eq i64 %56, 0
  br i1 %.not.i41, label %rb_array_len.exit43, label %rb_array_len.exit43.thread

rb_array_len.exit43:                              ; preds = %.preheader
  %57 = load i64, ptr %38, align 8, !tbaa !22
  %58 = icmp slt i64 %.1, %57
  br i1 %58, label %62, label %.loopexit

rb_array_len.exit43.thread:                       ; preds = %.preheader
  %59 = lshr i64 %55, 15
  %60 = and i64 %59, 127
  %61 = icmp slt i64 %.1, %60
  br i1 %61, label %RARRAY_AREF.exit49, label %.loopexit

62:                                               ; preds = %rb_array_len.exit43
  %63 = load ptr, ptr %39, align 8, !tbaa !22
  br label %RARRAY_AREF.exit49

RARRAY_AREF.exit49:                               ; preds = %rb_array_len.exit43.thread, %62
  %.pn56 = phi ptr [ %63, %62 ], [ %38, %rb_array_len.exit43.thread ]
  %.in55 = getelementptr i64, ptr %.pn56, i64 %.1
  %64 = load i64, ptr %.in55, align 8, !tbaa !7
  %65 = or disjoint i64 %.1, 1
  %66 = getelementptr i64, ptr %.pn56, i64 %65
  %67 = load i64, ptr %66, align 8, !tbaa !7
  %68 = call i64 @rb_assoc_new(i64 noundef %64, i64 noundef %67) #28
  %69 = call i64 @rb_yield(i64 noundef %68) #28
  %70 = add i64 %.1, 2
  br label %.preheader, !llvm.loop !123

.loopexit:                                        ; preds = %rb_array_len.exit.thread, %rb_array_len.exit, %rb_array_len.exit43.thread, %rb_array_len.exit43, %4
  %.0 = phi i64 [ %7, %4 ], [ %0, %rb_array_len.exit43 ], [ %0, %rb_array_len.exit43.thread ], [ %0, %rb_array_len.exit ], [ %0, %rb_array_len.exit.thread ]
  ret i64 %.0
}